; ModuleID = '49/943.c'
source_filename = "49/943.c"
target datalayout = "e-m:e-p270:32:32-p271:32:32-p272:64:64-i64:64-f80:128-n8:16:32:64-S128"
target triple = "x86_64-pc-linux-gnu"

@.str = private unnamed_addr constant [3 x i8] c"%c\00", align 1
@.str.1 = private unnamed_addr constant [2 x i8] c"\0A\00", align 1

; Function Attrs: noinline nounwind uwtable
define dso_local i32 @main() #0 {
  %1 = alloca i32, align 4
  %2 = alloca i32, align 4
  %3 = alloca i32, align 4
  %4 = alloca i32, align 4
  %5 = alloca i32, align 4
  %6 = alloca i32, align 4
  %7 = alloca i32, align 4
  %8 = alloca i32, align 4
  %9 = alloca [500 x i8], align 16
  %10 = alloca [500 x i8], align 16
  store i32 0, i32* %1, align 4
  %11 = getelementptr inbounds [500 x i8], [500 x i8]* %9, i64 0, i64 0
  %12 = call i32 (i8*, ...) bitcast (i32 (...)* @gets to i32 (i8*, ...)*)(i8* %11)
  %13 = getelementptr inbounds [500 x i8], [500 x i8]* %9, i64 0, i64 0
  %14 = call i64 @strlen(i8* %13) #3
  %15 = trunc i64 %14 to i32
  store i32 %15, i32* %2, align 4
  store i32 2, i32* %3, align 4
  br label %16

16:                                               ; preds = %84, %0
  %17 = load i32, i32* %3, align 4
  %18 = load i32, i32* %2, align 4
  %19 = icmp sle i32 %17, %18
  br i1 %19, label %20, label %87

20:                                               ; preds = %16
  store i32 0, i32* %4, align 4
  br label %21

21:                                               ; preds = %80, %20
  %22 = load i32, i32* %4, align 4
  %23 = load i32, i32* %2, align 4
  %24 = load i32, i32* %3, align 4
  %25 = sub nsw i32 %23, %24
  %26 = icmp sle i32 %22, %25
  br i1 %26, label %27, label %83

27:                                               ; preds = %21
  store i32 1, i32* %6, align 4
  %28 = load i32, i32* %4, align 4
  %29 = load i32, i32* %3, align 4
  %30 = add nsw i32 %28, %29
  %31 = sub nsw i32 %30, 1
  store i32 %31, i32* %5, align 4
  %32 = load i32, i32* %4, align 4
  store i32 %32, i32* %7, align 4
  br label %33

33:                                               ; preds = %55, %27
  %34 = load i32, i32* %7, align 4
  %35 = load i32, i32* %5, align 4
  %36 = icmp sle i32 %34, %35
  br i1 %36, label %37, label %58

37:                                               ; preds = %33
  %38 = load i32, i32* %7, align 4
  %39 = sext i32 %38 to i64
  %40 = getelementptr inbounds [500 x i8], [500 x i8]* %9, i64 0, i64 %39
  %41 = load i8, i8* %40, align 1
  %42 = sext i8 %41 to i32
  %43 = load i32, i32* %5, align 4
  %44 = load i32, i32* %4, align 4
  %45 = add nsw i32 %43, %44
  %46 = load i32, i32* %7, align 4
  %47 = sub nsw i32 %45, %46
  %48 = sext i32 %47 to i64
  %49 = getelementptr inbounds [500 x i8], [500 x i8]* %9, i64 0, i64 %48
  %50 = load i8, i8* %49, align 1
  %51 = sext i8 %50 to i32
  %52 = icmp ne i32 %42, %51
  br i1 %52, label %53, label %54

53:                                               ; preds = %37
  store i32 0, i32* %6, align 4
  br label %54

54:                                               ; preds = %53, %37
  br label %55

55:                                               ; preds = %54
  %56 = load i32, i32* %7, align 4
  %57 = add nsw i32 %56, 1
  store i32 %57, i32* %7, align 4
  br label %33

58:                                               ; preds = %33
  %59 = load i32, i32* %6, align 4
  %60 = icmp eq i32 %59, 1
  br i1 %60, label %61, label %79

61:                                               ; preds = %58
  %62 = load i32, i32* %4, align 4
  store i32 %62, i32* %7, align 4
  br label %63

63:                                               ; preds = %74, %61
  %64 = load i32, i32* %7, align 4
  %65 = load i32, i32* %5, align 4
  %66 = icmp sle i32 %64, %65
  br i1 %66, label %67, label %77

67:                                               ; preds = %63
  %68 = load i32, i32* %7, align 4
  %69 = sext i32 %68 to i64
  %70 = getelementptr inbounds [500 x i8], [500 x i8]* %9, i64 0, i64 %69
  %71 = load i8, i8* %70, align 1
  %72 = sext i8 %71 to i32
  %73 = call i32 (i8*, ...) @printf(i8* getelementptr inbounds ([3 x i8], [3 x i8]* @.str, i64 0, i64 0), i32 %72)
  br label %74

74:                                               ; preds = %67
  %75 = load i32, i32* %7, align 4
  %76 = add nsw i32 %75, 1
  store i32 %76, i32* %7, align 4
  br label %63

77:                                               ; preds = %63
  %78 = call i32 (i8*, ...) @printf(i8* getelementptr inbounds ([2 x i8], [2 x i8]* @.str.1, i64 0, i64 0))
  br label %79

79:                                               ; preds = %77, %58
  br label %80

80:                                               ; preds = %79
  %81 = load i32, i32* %4, align 4
  %82 = add nsw i32 %81, 1
  store i32 %82, i32* %4, align 4
  br label %21

83:                                               ; preds = %21
  br label %84

84:                                               ; preds = %83
  %85 = load i32, i32* %3, align 4
  %86 = add nsw i32 %85, 1
  store i32 %86, i32* %3, align 4
  br label %16

87:                                               ; preds = %16
  ret i32 0
}

declare dso_local i32 @gets(...) #1

; Function Attrs: nounwind readonly
declare dso_local i64 @strlen(i8*) #2

declare dso_local i32 @printf(i8*, ...) #1


!llvm.module.flags = !{!0}
!llvm.ident = !{!1}

!0 = !{i32 1, !"wchar_size", i32 4}
!1 = !{!"clang version 10.0.0-4ubuntu1 "}
